; Function Attrs: nounwind uwtable
define i32 @arkStep_GetNonlinSolvStats(ptr noundef %0, ptr noundef writeonly captures(none) %1, ptr noundef writeonly captures(none) %2) local_unnamed_addr #0 {
  %4 = alloca ptr, align 8
  call void @llvm.lifetime.start.p0(i64 8, ptr nonnull %4) #5
  %5 = call i32 @arkStep_AccessStepMem(ptr noundef %0, ptr noundef nonnull @__func__.arkStep_GetNonlinSolvStats, ptr noundef nonnull %4) #5
  %.not = icmp eq i32 %5, 0
  br i1 %.not, label %6, label %12

6:                                                ; preds = %3
  %7 = load ptr, ptr %4, align 8, !tbaa !3
  %8 = getelementptr inbounds nuw i8, ptr %7, i64 408
  %9 = load i64, ptr %8, align 8, !tbaa !86
  store i64 %9, ptr %1, align 8, !tbaa !41
  %10 = getelementptr inbounds nuw i8, ptr %7, i64 416
  %11 = load i64, ptr %10, align 8, !tbaa !87
  store i64 %11, ptr %2, align 8, !tbaa !41
  br label %12

12:                                               ; preds = %3, %6
  call void @llvm.lifetime.end.p0(i64 8, ptr nonnull %4) #5
  ret i32 %5
}